target datalayout = "e-m:e-p270:32:32-p271:32:32-p272:64:64-i64:64-i128:128-f80:128-n8:16:32:64-S128"
target triple = "x86_64-pc-linux-gnu"

%struct._rpc_prog_info_value = type { ptr, i32, i32, ptr, ptr }
%struct.rpcstat_tap_data = type { ptr, i32, i32, i32 }

@rpc_progs = global ptr null, align 8
@.str.25 = private unnamed_addr constant [9 x i8] c"rpc.call\00", align 1
@.str.28 = private unnamed_addr constant [10 x i8] c"rpc.reply\00", align 1
@.str.29 = private unnamed_addr constant [8 x i8] c"Unknown\00", align 1
@.str.351 = private unnamed_addr constant [9 x i8] c",%d,%d%n\00", align 1
@rpc_program = internal global i32 0, align 4
@rpc_version = internal global i32 0, align 4
@rpc_min_proc = internal global i32 -1, align 4
@rpc_max_proc = internal global i32 -1, align 4
@.str.352 = private unnamed_addr constant [38 x i8] c"Program:%u version:%u isn't supported\00", align 1
@.str.353 = private unnamed_addr constant [31 x i8] c"<program>,<version>[,<filter>]\00", align 1

; Function Attrs: null_pointer_is_valid sspstrong uwtable
define ptr @rpc_prog_name(i32 noundef %0) #0 {
  %2 = alloca i32, align 4
  %3 = alloca ptr, align 8
  %4 = alloca ptr, align 8
  store i32 %0, ptr %2, align 4
  call void @llvm.lifetime.start.p0(i64 8, ptr %3) #18
  store ptr null, ptr %3, align 8
  call void @llvm.lifetime.start.p0(i64 8, ptr %4) #18
  %5 = load ptr, ptr @rpc_progs, align 8
  %6 = load i32, ptr %2, align 4
  %7 = zext i32 %6 to i64
  %8 = inttoptr i64 %7 to ptr
  %9 = call ptr @g_hash_table_lookup(ptr noundef %5, ptr noundef %8)
  store ptr %9, ptr %4, align 8
  %10 = icmp eq ptr %9, null
  br i1 %10, label %11, label %12

11:                                               ; preds = %1
  store ptr @.str.29, ptr %3, align 8
  br label %16

12:                                               ; preds = %1
  %13 = load ptr, ptr %4, align 8
  %14 = getelementptr inbounds nuw %struct._rpc_prog_info_value, ptr %13, i32 0, i32 3
  %15 = load ptr, ptr %14, align 8
  store ptr %15, ptr %3, align 8
  br label %16

16:                                               ; preds = %12, %11
  %17 = load ptr, ptr %3, align 8
  call void @llvm.lifetime.end.p0(i64 8, ptr %4) #18
  call void @llvm.lifetime.end.p0(i64 8, ptr %3) #18
  ret ptr %17
}

; Function Attrs: null_pointer_is_valid sspstrong uwtable
define internal i32 @rpcstat_param(ptr noundef %0, ptr noundef %1, ptr noundef %2) #0 {
  %4 = alloca ptr, align 8
  %5 = alloca ptr, align 8
  %6 = alloca ptr, align 8
  %7 = alloca i32, align 4
  %8 = alloca i32, align 4
  %9 = alloca i32, align 4
  %10 = alloca ptr, align 8
  %11 = alloca i64, align 8
  %12 = alloca i64, align 8
  %13 = alloca ptr, align 8
  %14 = alloca ptr, align 8
  store ptr %0, ptr %4, align 8
  store ptr %1, ptr %5, align 8
  store ptr %2, ptr %6, align 8
  call void @llvm.lifetime.start.p0(i64 4, ptr %7) #18
  store i32 0, ptr %7, align 4
  call void @llvm.lifetime.start.p0(i64 4, ptr %8) #18
  call void @llvm.lifetime.start.p0(i64 4, ptr %9) #18
  call void @llvm.lifetime.start.p0(i64 8, ptr %10) #18
  %15 = load ptr, ptr %5, align 8
  %16 = call i32 (ptr, ptr, ...) @__isoc99_sscanf(ptr noundef %15, ptr noundef @.str.351, ptr noundef %8, ptr noundef %9, ptr noundef %7) #18
  %17 = icmp eq i32 %16, 2
  br i1 %17, label %18, label %78

18:                                               ; preds = %3
  call void @llvm.lifetime.start.p0(i64 8, ptr %11) #18
  store i64 1, ptr %11, align 8
  call void @llvm.lifetime.start.p0(i64 8, ptr %12) #18
  store i64 24, ptr %12, align 8
  call void @llvm.lifetime.start.p0(i64 8, ptr %13) #18
  %19 = load i64, ptr %12, align 8
  %20 = icmp eq i64 %19, 1
  br i1 %20, label %21, label %24

21:                                               ; preds = %18
  %22 = load i64, ptr %11, align 8
  %23 = call noalias ptr @g_malloc0(i64 noundef %22) #19
  store ptr %23, ptr %13, align 8
  br label %45

24:                                               ; preds = %18
  %25 = load i64, ptr %11, align 8
  %26 = call i1 @llvm.is.constant.i64(i64 %25)
  br i1 %26, label %27, label %40

27:                                               ; preds = %24
  %28 = load i64, ptr %12, align 8
  %29 = icmp eq i64 %28, 0
  br i1 %29, label %35, label %30

30:                                               ; preds = %27
  %31 = load i64, ptr %11, align 8
  %32 = load i64, ptr %12, align 8
  %33 = udiv i64 -1, %32
  %34 = icmp ule i64 %31, %33
  br i1 %34, label %35, label %40

35:                                               ; preds = %30, %27
  %36 = load i64, ptr %11, align 8
  %37 = load i64, ptr %12, align 8
  %38 = mul i64 %36, %37
  %39 = call noalias ptr @g_malloc0(i64 noundef %38) #19
  store ptr %39, ptr %13, align 8
  br label %44

40:                                               ; preds = %30, %24
  %41 = load i64, ptr %11, align 8
  %42 = load i64, ptr %12, align 8
  %43 = call noalias ptr @g_malloc0_n(i64 noundef %41, i64 noundef %42) #20
  store ptr %43, ptr %13, align 8
  br label %44

44:                                               ; preds = %40, %35
  br label %45

45:                                               ; preds = %44, %21
  %46 = load ptr, ptr %13, align 8
  store ptr %46, ptr %14, align 8
  call void @llvm.lifetime.end.p0(i64 8, ptr %13) #18
  call void @llvm.lifetime.end.p0(i64 8, ptr %12) #18
  call void @llvm.lifetime.end.p0(i64 8, ptr %11) #18
  %47 = load ptr, ptr %14, align 8
  store ptr %47, ptr %10, align 8
  %48 = load i32, ptr %8, align 4
  %49 = call ptr @rpc_prog_name(i32 noundef %48)
  %50 = load ptr, ptr %10, align 8
  %51 = getelementptr inbounds nuw %struct.rpcstat_tap_data, ptr %50, i32 0, i32 0
  store ptr %49, ptr %51, align 8
  %52 = load i32, ptr %8, align 4
  %53 = load ptr, ptr %10, align 8
  %54 = getelementptr inbounds nuw %struct.rpcstat_tap_data, ptr %53, i32 0, i32 1
  store i32 %52, ptr %54, align 8
  %55 = load i32, ptr %9, align 4
  %56 = load ptr, ptr %10, align 8
  %57 = getelementptr inbounds nuw %struct.rpcstat_tap_data, ptr %56, i32 0, i32 2
  store i32 %55, ptr %57, align 4
  %58 = load ptr, ptr %4, align 8
  %59 = load ptr, ptr %10, align 8
  call void @set_srt_table_param_data(ptr noundef %58, ptr noundef %59)
  %60 = load ptr, ptr %10, align 8
  %61 = getelementptr inbounds nuw %struct.rpcstat_tap_data, ptr %60, i32 0, i32 1
  %62 = load i32, ptr %61, align 8
  store i32 %62, ptr @rpc_program, align 4
  %63 = load ptr, ptr %10, align 8
  %64 = getelementptr inbounds nuw %struct.rpcstat_tap_data, ptr %63, i32 0, i32 2
  %65 = load i32, ptr %64, align 4
  store i32 %65, ptr @rpc_version, align 4
  store i32 -1, ptr @rpc_min_proc, align 4
  store i32 -1, ptr @rpc_max_proc, align 4
  call void @dissector_table_foreach(ptr noundef @.str.25, ptr noundef @rpcstat_find_procs, ptr noundef null)
  call void @dissector_table_foreach(ptr noundef @.str.28, ptr noundef @rpcstat_find_procs, ptr noundef null)
  %66 = load i32, ptr @rpc_max_proc, align 4
  %67 = add i32 %66, 1
  %68 = load ptr, ptr %10, align 8
  %69 = getelementptr inbounds nuw %struct.rpcstat_tap_data, ptr %68, i32 0, i32 3
  store i32 %67, ptr %69, align 8
  %70 = load i32, ptr @rpc_min_proc, align 4
  %71 = icmp eq i32 %70, -1
  br i1 %71, label %72, label %77

72:                                               ; preds = %45
  %73 = load i32, ptr @rpc_program, align 4
  %74 = load i32, ptr @rpc_version, align 4
  %75 = call noalias ptr (ptr, ptr, ...) @wmem_strdup_printf(ptr noundef null, ptr noundef @.str.352, i32 noundef %73, i32 noundef %74)
  %76 = load ptr, ptr %6, align 8
  store ptr %75, ptr %76, align 8
  br label %77

77:                                               ; preds = %72, %45
  br label %81

78:                                               ; preds = %3
  %79 = call noalias ptr @g_strdup(ptr noundef @.str.353)
  %80 = load ptr, ptr %6, align 8
  store ptr %79, ptr %80, align 8
  br label %81

81:                                               ; preds = %78, %77
  %82 = load i32, ptr %7, align 4
  call void @llvm.lifetime.end.p0(i64 8, ptr %10) #18
  call void @llvm.lifetime.end.p0(i64 4, ptr %9) #18
  call void @llvm.lifetime.end.p0(i64 4, ptr %8) #18
  call void @llvm.lifetime.end.p0(i64 4, ptr %7) #18
  ret i32 %82
}