; Function Attrs: null_pointer_is_valid sspstrong uwtable
define internal i32 @rpcstat_param(ptr noundef %0, ptr noundef readonly captures(none) %1, ptr noundef writeonly captures(none) %2) #0 {
  %4 = alloca i32, align 4
  %5 = alloca i32, align 4
  %6 = alloca i32, align 4
  call void @llvm.lifetime.start.p0(i64 4, ptr nonnull %4) #17
  store i32 0, ptr %4, align 4
  call void @llvm.lifetime.start.p0(i64 4, ptr nonnull %5) #17
  call void @llvm.lifetime.start.p0(i64 4, ptr nonnull %6) #17
  %7 = call i32 (ptr, ptr, ...) @__isoc99_sscanf(ptr noundef %1, ptr noundef nonnull @.str.351, ptr noundef nonnull %5, ptr noundef nonnull %6, ptr noundef nonnull %4) #17
  %8 = icmp eq i32 %7, 2
  br i1 %8, label %9, label %35

9:                                                ; preds = %3
  %10 = call noalias dereferenceable_or_null(24) ptr @g_malloc0(i64 noundef 24) #18
  %11 = load i32, ptr %5, align 4
  %12 = load ptr, ptr @rpc_progs, align 8
  %13 = zext i32 %11 to i64
  %14 = inttoptr i64 %13 to ptr
  %15 = call ptr @g_hash_table_lookup(ptr noundef %12, ptr noundef %14)
  %16 = icmp eq ptr %15, null
  br i1 %16, label %rpc_prog_name.exit, label %17

17:                                               ; preds = %9
  %18 = getelementptr inbounds nuw i8, ptr %15, i64 16
  %19 = load ptr, ptr %18, align 8
  br label %rpc_prog_name.exit

rpc_prog_name.exit:                               ; preds = %9, %17
  %.0.i = phi ptr [ %19, %17 ], [ @.str.29, %9 ]
  store ptr %.0.i, ptr %10, align 8
  %20 = load i32, ptr %5, align 4
  %21 = getelementptr inbounds nuw i8, ptr %10, i64 8
  store i32 %20, ptr %21, align 8
  %22 = load i32, ptr %6, align 4
  %23 = getelementptr inbounds nuw i8, ptr %10, i64 12
  store i32 %22, ptr %23, align 4
  call void @set_srt_table_param_data(ptr noundef %0, ptr noundef %10)
  %24 = load i32, ptr %21, align 8
  store i32 %24, ptr @rpc_program, align 4
  %25 = load i32, ptr %23, align 4
  store i32 %25, ptr @rpc_version, align 4
  store i32 -1, ptr @rpc_min_proc, align 4
  store i32 -1, ptr @rpc_max_proc, align 4
  call void @dissector_table_foreach(ptr noundef nonnull @.str.25, ptr noundef nonnull @rpcstat_find_procs, ptr noundef null)
  call void @dissector_table_foreach(ptr noundef nonnull @.str.28, ptr noundef nonnull @rpcstat_find_procs, ptr noundef null)
  %26 = load i32, ptr @rpc_max_proc, align 4
  %27 = add i32 %26, 1
  %28 = getelementptr inbounds nuw i8, ptr %10, i64 16
  store i32 %27, ptr %28, align 8
  %29 = load i32, ptr @rpc_min_proc, align 4
  %30 = icmp eq i32 %29, -1
  br i1 %30, label %31, label %37

31:                                               ; preds = %rpc_prog_name.exit
  %32 = load i32, ptr @rpc_program, align 4
  %33 = load i32, ptr @rpc_version, align 4
  %34 = call noalias ptr (ptr, ptr, ...) @wmem_strdup_printf(ptr noundef null, ptr noundef nonnull @.str.352, i32 noundef %32, i32 noundef %33)
  br label %.sink.split

35:                                               ; preds = %3
  %36 = call noalias ptr @g_strdup(ptr noundef nonnull @.str.353)
  br label %.sink.split

.sink.split:                                      ; preds = %35, %31
  %.sink = phi ptr [ %34, %31 ], [ %36, %35 ]
  store ptr %.sink, ptr %2, align 8
  br label %37

37:                                               ; preds = %.sink.split, %rpc_prog_name.exit
  %38 = load i32, ptr %4, align 4
  call void @llvm.lifetime.end.p0(i64 4, ptr nonnull %6) #17
  call void @llvm.lifetime.end.p0(i64 4, ptr nonnull %5) #17
  call void @llvm.lifetime.end.p0(i64 4, ptr nonnull %4) #17
  ret i32 %38
}